; Function Attrs: nounwind uwtable
define ptr @l_Lean_ParseImports_setIsExported(i8 noundef zeroext %0, ptr readnone captures(none) %1, ptr noundef %2) local_unnamed_addr #0 {
  %.val = load i32, ptr %2, align 4, !tbaa !4
  %4 = icmp eq i32 %.val, 1
  br i1 %4, label %5, label %7

5:                                                ; preds = %3
  %6 = getelementptr inbounds nuw i8, ptr %2, i64 33
  store i8 %0, ptr %6, align 1, !tbaa !15
  br label %61

7:                                                ; preds = %3
  %8 = getelementptr inbounds nuw i8, ptr %2, i64 8
  %9 = load ptr, ptr %8, align 8, !tbaa !10
  %10 = getelementptr inbounds nuw i8, ptr %2, i64 16
  %11 = load ptr, ptr %10, align 8, !tbaa !10
  %12 = getelementptr inbounds nuw i8, ptr %2, i64 24
  %13 = load ptr, ptr %12, align 8, !tbaa !10
  %14 = getelementptr inbounds nuw i8, ptr %2, i64 32
  %15 = load i8, ptr %14, align 1, !tbaa !15
  %16 = getelementptr inbounds nuw i8, ptr %2, i64 34
  %17 = load i8, ptr %16, align 1, !tbaa !15
  %18 = ptrtoint ptr %13 to i64
  %19 = and i64 %18, 1
  %.not = icmp eq i64 %19, 0
  br i1 %.not, label %20, label %lean_inc.exit28

20:                                               ; preds = %7
  %.val.i = load i32, ptr %13, align 4, !tbaa !4
  %21 = icmp sgt i32 %.val.i, 0
  br i1 %21, label %22, label %24, !prof !9

22:                                               ; preds = %20
  %23 = add nuw i32 %.val.i, 1
  store i32 %23, ptr %13, align 4, !tbaa !4
  br label %lean_inc.exit28

24:                                               ; preds = %20
  %.not.i29 = icmp eq i32 %.val.i, 0
  br i1 %.not.i29, label %lean_inc.exit28, label %25

25:                                               ; preds = %24
  tail call void @lean_inc_ref_cold(ptr noundef nonnull %13) #6
  br label %lean_inc.exit28

lean_inc.exit28:                                  ; preds = %25, %24, %22, %7
  %26 = ptrtoint ptr %11 to i64
  %27 = and i64 %26, 1
  %.not36 = icmp eq i64 %27, 0
  br i1 %.not36, label %28, label %lean_inc.exit27

28:                                               ; preds = %lean_inc.exit28
  %.val.i30 = load i32, ptr %11, align 4, !tbaa !4
  %29 = icmp sgt i32 %.val.i30, 0
  br i1 %29, label %30, label %32, !prof !9

30:                                               ; preds = %28
  %31 = add nuw i32 %.val.i30, 1
  store i32 %31, ptr %11, align 4, !tbaa !4
  br label %lean_inc.exit27

32:                                               ; preds = %28
  %.not.i31 = icmp eq i32 %.val.i30, 0
  br i1 %.not.i31, label %lean_inc.exit27, label %33

33:                                               ; preds = %32
  tail call void @lean_inc_ref_cold(ptr noundef nonnull %11) #6
  br label %lean_inc.exit27

lean_inc.exit27:                                  ; preds = %33, %32, %30, %lean_inc.exit28
  %34 = ptrtoint ptr %9 to i64
  %35 = and i64 %34, 1
  %.not37 = icmp eq i64 %35, 0
  br i1 %.not37, label %36, label %lean_inc.exit

36:                                               ; preds = %lean_inc.exit27
  %.val.i33 = load i32, ptr %9, align 4, !tbaa !4
  %37 = icmp sgt i32 %.val.i33, 0
  br i1 %37, label %38, label %40, !prof !9

38:                                               ; preds = %36
  %39 = add nuw i32 %.val.i33, 1
  store i32 %39, ptr %9, align 4, !tbaa !4
  br label %lean_inc.exit

40:                                               ; preds = %36
  %.not.i34 = icmp eq i32 %.val.i33, 0
  br i1 %.not.i34, label %lean_inc.exit, label %41

41:                                               ; preds = %40
  tail call void @lean_inc_ref_cold(ptr noundef nonnull %9) #6
  br label %lean_inc.exit

lean_inc.exit:                                    ; preds = %41, %40, %38, %lean_inc.exit27
  %42 = ptrtoint ptr %2 to i64
  %43 = and i64 %42, 1
  %.not38 = icmp eq i64 %43, 0
  br i1 %.not38, label %44, label %lean_dec.exit

44:                                               ; preds = %lean_inc.exit
  %45 = load i32, ptr %2, align 4, !tbaa !4
  %46 = icmp sgt i32 %45, 1
  br i1 %46, label %47, label %49, !prof !9

47:                                               ; preds = %44
  %48 = add nsw i32 %45, -1
  store i32 %48, ptr %2, align 4, !tbaa !4
  br label %lean_dec.exit

49:                                               ; preds = %44
  %.not.i = icmp eq i32 %45, 0
  br i1 %.not.i, label %lean_dec.exit, label %50

50:                                               ; preds = %49
  tail call void @lean_dec_ref_cold(ptr noundef nonnull %2) #6
  br label %lean_dec.exit

lean_dec.exit:                                    ; preds = %50, %49, %47, %lean_inc.exit
  tail call void @lean_inc_heartbeat() #6
  %51 = tail call noalias ptr @mi_malloc_small(i64 noundef 40) #6
  %52 = icmp eq ptr %51, null
  br i1 %52, label %53, label %lean_alloc_ctor.exit

53:                                               ; preds = %lean_dec.exit
  tail call void @lean_internal_panic_out_of_memory() #7
  unreachable

lean_alloc_ctor.exit:                             ; preds = %lean_dec.exit
  %54 = getelementptr inbounds nuw i8, ptr %51, i64 4
  %55 = getelementptr inbounds nuw i8, ptr %51, i64 32
  store i64 0, ptr %55, align 8, !tbaa !16
  store i32 1, ptr %51, align 4, !tbaa !4
  store i32 196648, ptr %54, align 4
  %56 = getelementptr inbounds nuw i8, ptr %51, i64 8
  store ptr %9, ptr %56, align 8, !tbaa !10
  %57 = getelementptr inbounds nuw i8, ptr %51, i64 16
  store ptr %11, ptr %57, align 8, !tbaa !10
  %58 = getelementptr inbounds nuw i8, ptr %51, i64 24
  store ptr %13, ptr %58, align 8, !tbaa !10
  store i8 %15, ptr %55, align 1, !tbaa !15
  %59 = getelementptr inbounds nuw i8, ptr %51, i64 33
  store i8 %0, ptr %59, align 1, !tbaa !15
  %60 = getelementptr inbounds nuw i8, ptr %51, i64 34
  store i8 %17, ptr %60, align 1, !tbaa !15
  br label %61

61:                                               ; preds = %lean_alloc_ctor.exit, %5
  %.0 = phi ptr [ %2, %5 ], [ %51, %lean_alloc_ctor.exit ]
  ret ptr %.0
}